; Function Attrs: mustprogress nofree norecurse nosync nounwind willreturn memory(write, argmem: readwrite, inaccessiblemem: none) uwtable
define void @_ZN4YAML7Scanner9SimpleKey8ValidateEv(ptr noundef nonnull readonly align 8 captures(none) dereferenceable(48) %this) local_unnamed_addr #6 align 2 {
entry:
  %pIndent = getelementptr inbounds nuw i8, ptr %this, i64 24
  %0 = load ptr, ptr %pIndent, align 8
  %tobool.not = icmp eq ptr %0, null
  br i1 %tobool.not, label %if.end, label %if.then

if.then:                                          ; preds = %entry
  %status = getelementptr inbounds nuw i8, ptr %0, i64 8
  store i32 0, ptr %status, align 8
  br label %if.end

if.end:                                           ; preds = %if.then, %entry
  %pMapStart = getelementptr inbounds nuw i8, ptr %this, i64 32
  %1 = load ptr, ptr %pMapStart, align 8
  %tobool3.not = icmp eq ptr %1, null
  br i1 %tobool3.not, label %if.end7, label %if.then4

if.then4:                                         ; preds = %if.end
  store i32 0, ptr %1, align 8
  br label %if.end7

if.end7:                                          ; preds = %if.then4, %if.end
  %pKey = getelementptr inbounds nuw i8, ptr %this, i64 40
  %2 = load ptr, ptr %pKey, align 8
  %tobool8.not = icmp eq ptr %2, null
  br i1 %tobool8.not, label %if.end12, label %if.then9

if.then9:                                         ; preds = %if.end7
  store i32 0, ptr %2, align 8
  br label %if.end12

if.end12:                                         ; preds = %if.then9, %if.end7
  ret void
}